target datalayout = "e-m:e-p270:32:32-p271:32:32-p272:64:64-i64:64-i128:128-f80:128-n8:16:32:64-S128"
target triple = "x86_64-pc-linux-gnu"

%"class.absl::lts_20240722::Status" = type { i64 }
%struct.alts_shared_resource_dedicated = type { %"class.grpc_core::Thread", ptr, ptr, %struct.grpc_cq_completion, i64, ptr }
%"class.grpc_core::Thread" = type { i32, ptr, %"class.grpc_core::Thread::Options" }
%"class.grpc_core::Thread::Options" = type { i8, i8, i64 }
%struct.grpc_cq_completion = type { %"class.grpc_core::ManualConstructor", ptr, ptr, ptr, i64 }
%"class.grpc_core::ManualConstructor" = type { [8 x i8] }
%class.anon.48 = type { i8 }

; Function Attrs: mustprogress nounwind uwtable
define linkonce_odr void @_ZN4absl12lts_202407226StatusC2Em(ptr noundef nonnull align 8 dereferenceable(8) %0, i64 noundef %1) unnamed_addr #6 comdat align 2 {
  %3 = alloca ptr, align 8
  %4 = alloca i64, align 8
  store ptr %0, ptr %3, align 8, !tbaa !337
  store i64 %1, ptr %4, align 8, !tbaa !40
  %5 = load ptr, ptr %3, align 8
  %6 = getelementptr inbounds nuw %"class.absl::lts_20240722::Status", ptr %5, i32 0, i32 0
  %7 = load i64, ptr %4, align 8, !tbaa !40
  store i64 %7, ptr %6, align 8, !tbaa !344
  ret void
}

; Function Attrs: mustprogress nounwind uwtable
define linkonce_odr noundef i64 @_ZN4absl12lts_202407226Status16CodeToInlinedRepENS0_10StatusCodeE(i32 noundef %0) #6 comdat align 2 {
  %2 = alloca i32, align 4
  store i32 %0, ptr %2, align 4, !tbaa !360
  %3 = load i32, ptr %2, align 4, !tbaa !360
  %4 = sext i32 %3 to i64
  %5 = shl i64 %4, 2
  %6 = add i64 %5, 1
  ret i64 %6
}

; Function Attrs: inlinehint mustprogress uwtable
define linkonce_odr void @_ZN4absl12lts_202407226StatusC2ENS0_10StatusCodeE(ptr noundef nonnull align 8 dereferenceable(8) %0, i32 noundef %1) unnamed_addr #9 comdat align 2 {
  %3 = alloca ptr, align 8
  %4 = alloca i32, align 4
  store ptr %0, ptr %3, align 8, !tbaa !337
  store i32 %1, ptr %4, align 4, !tbaa !360
  %5 = load ptr, ptr %3, align 8
  %6 = load i32, ptr %4, align 4, !tbaa !360
  %7 = call noundef i64 @_ZN4absl12lts_202407226Status16CodeToInlinedRepENS0_10StatusCodeE(i32 noundef %6)
  call void @_ZN4absl12lts_202407226StatusC2Em(ptr noundef nonnull align 8 dereferenceable(8) %5, i64 noundef %7)
  ret void
}

; Function Attrs: inlinehint mustprogress uwtable
define linkonce_odr void @_ZN4absl12lts_202407226StatusC2Ev(ptr noundef nonnull align 8 dereferenceable(8) %0) unnamed_addr #9 comdat align 2 {
  %2 = alloca ptr, align 8
  store ptr %0, ptr %2, align 8, !tbaa !337
  %3 = load ptr, ptr %2, align 8
  call void @_ZN4absl12lts_202407226StatusC2ENS0_10StatusCodeE(ptr noundef nonnull align 8 dereferenceable(8) %3, i32 noundef 0)
  ret void
}

; Function Attrs: inlinehint mustprogress nounwind uwtable
define internal noundef ptr @"_ZZL41on_handshaker_service_resp_recv_dedicatedPvN4absl12lts_202407226StatusEENK3$_0cvPFvS_P18grpc_cq_completionEEv"(ptr noundef nonnull align 1 dereferenceable(1) %0) #11 align 2 {
  %2 = alloca ptr, align 8
  store ptr %0, ptr %2, align 8, !tbaa !60
  ret ptr @"_ZZL41on_handshaker_service_resp_recv_dedicatedPvN4absl12lts_202407226StatusEEN3$_08__invokeES_P18grpc_cq_completion"
}

; Function Attrs: inlinehint mustprogress uwtable
define linkonce_odr void @_ZN4absl12lts_202407228OkStatusEv(ptr dead_on_unwind noalias writable sret(%"class.absl::lts_20240722::Status") align 8 %0) #9 comdat {
  %2 = alloca ptr, align 8
  store ptr %0, ptr %2, align 8
  call void @_ZN4absl12lts_202407226StatusC2Ev(ptr noundef nonnull align 8 dereferenceable(8) %0)
  ret void
}

; Function Attrs: mustprogress uwtable
define internal void @_ZL41on_handshaker_service_resp_recv_dedicatedPvN4absl12lts_202407226StatusE(ptr noundef %0, ptr noundef %1) #4 personality ptr @__gxx_personality_v0 {
  %3 = alloca ptr, align 8
  %4 = alloca ptr, align 8
  %5 = alloca ptr, align 8
  %6 = alloca %"class.absl::lts_20240722::Status", align 8
  %7 = alloca %class.anon.48, align 1
  %8 = alloca ptr, align 8
  %9 = alloca i32, align 4
  store ptr %0, ptr %3, align 8, !tbaa !60
  store ptr %1, ptr %4, align 8, !tbaa !337
  call void @llvm.lifetime.start.p0(i64 8, ptr %5) #3
  %10 = call noundef ptr @_Z39grpc_alts_get_shared_resource_dedicatedv()
  store ptr %10, ptr %5, align 8, !tbaa !364
  %11 = load ptr, ptr %5, align 8, !tbaa !364
  %12 = getelementptr inbounds nuw %struct.alts_shared_resource_dedicated, ptr %11, i32 0, i32 1
  %13 = load ptr, ptr %12, align 8, !tbaa !357
  %14 = load ptr, ptr %3, align 8, !tbaa !60
  call void @_ZN4absl12lts_202407228OkStatusEv(ptr dead_on_unwind writable sret(%"class.absl::lts_20240722::Status") align 8 %6)
  call void @llvm.lifetime.start.p0(i64 1, ptr %7) #3
  %15 = call noundef ptr @"_ZZL41on_handshaker_service_resp_recv_dedicatedPvN4absl12lts_202407226StatusEENK3$_0cvPFvS_P18grpc_cq_completionEEv"(ptr noundef nonnull align 1 dereferenceable(1) %7) #3
  %16 = load ptr, ptr %5, align 8, !tbaa !364
  %17 = getelementptr inbounds nuw %struct.alts_shared_resource_dedicated, ptr %16, i32 0, i32 3
  invoke void @_Z14grpc_cq_end_opP21grpc_completion_queuePvN4absl12lts_202407226StatusEPFvS1_P18grpc_cq_completionES1_S6_b(ptr noundef %13, ptr noundef %14, ptr noundef %6, ptr noundef %15, ptr noundef null, ptr noundef %17, i1 noundef zeroext false)
          to label %18 unwind label %19

18:                                               ; preds = %2
  call void @llvm.lifetime.end.p0(i64 1, ptr %7) #3
  call void @_ZN4absl12lts_202407226StatusD2Ev(ptr noundef nonnull align 8 dereferenceable(8) %6) #3
  call void @llvm.lifetime.end.p0(i64 8, ptr %5) #3
  ret void

19:                                               ; preds = %2
  %20 = landingpad { ptr, i32 }
          cleanup
  %21 = extractvalue { ptr, i32 } %20, 0
  store ptr %21, ptr %8, align 8
  %22 = extractvalue { ptr, i32 } %20, 1
  store i32 %22, ptr %9, align 4
  call void @llvm.lifetime.end.p0(i64 1, ptr %7) #3
  call void @_ZN4absl12lts_202407226StatusD2Ev(ptr noundef nonnull align 8 dereferenceable(8) %6) #3
  call void @llvm.lifetime.end.p0(i64 8, ptr %5) #3
  br label %23

23:                                               ; preds = %19
  %24 = load ptr, ptr %8, align 8
  %25 = load i32, ptr %9, align 4
  %26 = insertvalue { ptr, i32 } poison, ptr %24, 0
  %27 = insertvalue { ptr, i32 } %26, i32 %25, 1
  resume { ptr, i32 } %27
}