; Function Attrs: mustprogress uwtable
define internal void @_ZL41on_handshaker_service_resp_recv_dedicatedPvN4absl12lts_202407226StatusE(ptr noundef %0, ptr readnone captures(none) %1) #3 personality ptr @__gxx_personality_v0 {
  %3 = alloca %"class.absl::lts_20240722::Status", align 8
  %4 = tail call noundef ptr @_Z39grpc_alts_get_shared_resource_dedicatedv()
  %5 = getelementptr inbounds nuw i8, ptr %4, i64 32
  %6 = load ptr, ptr %5, align 8, !tbaa !162
  store i64 1, ptr %3, align 8, !tbaa !141, !alias.scope !163
  %7 = getelementptr inbounds nuw i8, ptr %4, i64 48
  invoke void @_Z14grpc_cq_end_opP21grpc_completion_queuePvN4absl12lts_202407226StatusEPFvS1_P18grpc_cq_completionES1_S6_b(ptr noundef %6, ptr noundef %0, ptr noundef nonnull %3, ptr noundef nonnull @"_ZZL41on_handshaker_service_resp_recv_dedicatedPvN4absl12lts_202407226StatusEEN3$_08__invokeES_P18grpc_cq_completion", ptr noundef null, ptr noundef nonnull %7, i1 noundef zeroext false)
          to label %8 unwind label %16

8:                                                ; preds = %2
  %9 = load i64, ptr %3, align 8, !tbaa !141
  %10 = and i64 %9, 1
  %.not.i.i = icmp eq i64 %10, 0
  br i1 %.not.i.i, label %11, label %_ZN4absl12lts_202407226StatusD2Ev.exit

11:                                               ; preds = %8
  %12 = inttoptr i64 %9 to ptr
  invoke void @_ZNK4absl12lts_2024072215status_internal9StatusRep5UnrefEv(ptr noundef nonnull align 8 dereferenceable(48) %12)
          to label %_ZN4absl12lts_202407226StatusD2Ev.exit unwind label %13

13:                                               ; preds = %11
  %14 = landingpad { ptr, i32 }
          catch ptr null
  %15 = extractvalue { ptr, i32 } %14, 0
  call void @__clang_call_terminate(ptr %15) #32
  unreachable

_ZN4absl12lts_202407226StatusD2Ev.exit:           ; preds = %8, %11
  ret void

16:                                               ; preds = %2
  %17 = landingpad { ptr, i32 }
          cleanup
  call void @_ZN4absl12lts_202407226StatusD2Ev(ptr noundef nonnull align 8 dereferenceable(8) %3) #29
  resume { ptr, i32 } %17
}